; Function Attrs: nounwind uwtable
define ptr @l_Fin_reduceFinMk___lambda__1___boxed(ptr noundef %0, ptr noundef %1, ptr noundef %2, ptr noundef %3, ptr noundef %4, ptr noundef %5, ptr noundef %6, ptr noundef %7, ptr noundef %8, ptr noundef %9) #1 {
  %11 = tail call ptr @l_Fin_reduceFinMk___lambda__1(ptr noundef %0, ptr noundef %1, ptr poison, ptr poison, ptr poison, ptr noundef %5, ptr noundef %6, ptr noundef %7, ptr noundef %8, ptr noundef %9)
  %12 = ptrtoint ptr %4 to i64
  %13 = and i64 %12, 1
  %.not = icmp eq i64 %13, 0
  br i1 %.not, label %14, label %lean_dec.exit17

14:                                               ; preds = %10
  %15 = load i32, ptr %4, align 4, !tbaa !10
  %16 = icmp sgt i32 %15, 1
  br i1 %16, label %17, label %19, !prof !13

17:                                               ; preds = %14
  %18 = add nsw i32 %15, -1
  store i32 %18, ptr %4, align 4, !tbaa !10
  br label %lean_dec.exit17

19:                                               ; preds = %14
  %.not.i = icmp eq i32 %15, 0
  br i1 %.not.i, label %lean_dec.exit17, label %20

20:                                               ; preds = %19
  tail call void @lean_dec_ref_cold(ptr noundef nonnull %4) #4
  br label %lean_dec.exit17

lean_dec.exit17:                                  ; preds = %20, %19, %17, %10
  %21 = ptrtoint ptr %3 to i64
  %22 = and i64 %21, 1
  %.not24 = icmp eq i64 %22, 0
  br i1 %.not24, label %23, label %lean_dec.exit16

23:                                               ; preds = %lean_dec.exit17
  %24 = load i32, ptr %3, align 4, !tbaa !10
  %25 = icmp sgt i32 %24, 1
  br i1 %25, label %26, label %28, !prof !13

26:                                               ; preds = %23
  %27 = add nsw i32 %24, -1
  store i32 %27, ptr %3, align 4, !tbaa !10
  br label %lean_dec.exit16

28:                                               ; preds = %23
  %.not.i18 = icmp eq i32 %24, 0
  br i1 %.not.i18, label %lean_dec.exit16, label %29

29:                                               ; preds = %28
  tail call void @lean_dec_ref_cold(ptr noundef nonnull %3) #4
  br label %lean_dec.exit16

lean_dec.exit16:                                  ; preds = %29, %28, %26, %lean_dec.exit17
  %30 = ptrtoint ptr %2 to i64
  %31 = and i64 %30, 1
  %.not25 = icmp eq i64 %31, 0
  br i1 %.not25, label %32, label %lean_dec.exit15

32:                                               ; preds = %lean_dec.exit16
  %33 = load i32, ptr %2, align 4, !tbaa !10
  %34 = icmp sgt i32 %33, 1
  br i1 %34, label %35, label %37, !prof !13

35:                                               ; preds = %32
  %36 = add nsw i32 %33, -1
  store i32 %36, ptr %2, align 4, !tbaa !10
  br label %lean_dec.exit15

37:                                               ; preds = %32
  %.not.i20 = icmp eq i32 %33, 0
  br i1 %.not.i20, label %lean_dec.exit15, label %38

38:                                               ; preds = %37
  tail call void @lean_dec_ref_cold(ptr noundef nonnull %2) #4
  br label %lean_dec.exit15

lean_dec.exit15:                                  ; preds = %38, %37, %35, %lean_dec.exit16
  %39 = ptrtoint ptr %1 to i64
  %40 = and i64 %39, 1
  %.not26 = icmp eq i64 %40, 0
  br i1 %.not26, label %41, label %lean_dec.exit

41:                                               ; preds = %lean_dec.exit15
  %42 = load i32, ptr %1, align 4, !tbaa !10
  %43 = icmp sgt i32 %42, 1
  br i1 %43, label %44, label %46, !prof !13

44:                                               ; preds = %41
  %45 = add nsw i32 %42, -1
  store i32 %45, ptr %1, align 4, !tbaa !10
  br label %lean_dec.exit

46:                                               ; preds = %41
  %.not.i22 = icmp eq i32 %42, 0
  br i1 %.not.i22, label %lean_dec.exit, label %47

47:                                               ; preds = %46
  tail call void @lean_dec_ref_cold(ptr noundef nonnull %1) #4
  br label %lean_dec.exit

lean_dec.exit:                                    ; preds = %47, %46, %44, %lean_dec.exit15
  ret ptr %11
}